target datalayout = "e-m:e-p270:32:32-p271:32:32-p272:64:64-i64:64-i128:128-f80:128-n8:16:32:64-S128"
target triple = "x86_64-pc-linux-gnu"

; Function Attrs: inlinehint nounwind uwtable
define internal i32 @pix_abs8_c(ptr noundef %0, ptr noundef %1, ptr noundef %2, i64 noundef %3, i32 noundef %4) #5 {
  %6 = alloca ptr, align 8
  %7 = alloca ptr, align 8
  %8 = alloca ptr, align 8
  %9 = alloca i64, align 8
  %10 = alloca i32, align 4
  %11 = alloca i32, align 4
  %12 = alloca i32, align 4
  store ptr %0, ptr %6, align 8, !tbaa !22
  store ptr %1, ptr %7, align 8, !tbaa !24
  store ptr %2, ptr %8, align 8, !tbaa !24
  store i64 %3, ptr %9, align 8, !tbaa !26
  store i32 %4, ptr %10, align 4, !tbaa !11
  call void @llvm.lifetime.start.p0(i64 4, ptr %11) #9
  store i32 0, ptr %11, align 4, !tbaa !11
  call void @llvm.lifetime.start.p0(i64 4, ptr %12) #9
  store i32 0, ptr %12, align 4, !tbaa !11
  br label %13

13:                                               ; preds = %120, %5
  %14 = load i32, ptr %12, align 4, !tbaa !11
  %15 = load i32, ptr %10, align 4, !tbaa !11
  %16 = icmp slt i32 %14, %15
  br i1 %16, label %17, label %123

17:                                               ; preds = %13
  %18 = load ptr, ptr %7, align 8, !tbaa !24
  %19 = getelementptr inbounds i8, ptr %18, i64 0
  %20 = load i8, ptr %19, align 1, !tbaa !36
  %21 = zext i8 %20 to i32
  %22 = load ptr, ptr %8, align 8, !tbaa !24
  %23 = getelementptr inbounds i8, ptr %22, i64 0
  %24 = load i8, ptr %23, align 1, !tbaa !36
  %25 = zext i8 %24 to i32
  %26 = sub nsw i32 %21, %25
  %27 = call i32 @llvm.abs.i32(i32 %26, i1 true)
  %28 = load i32, ptr %11, align 4, !tbaa !11
  %29 = add nsw i32 %28, %27
  store i32 %29, ptr %11, align 4, !tbaa !11
  %30 = load ptr, ptr %7, align 8, !tbaa !24
  %31 = getelementptr inbounds i8, ptr %30, i64 1
  %32 = load i8, ptr %31, align 1, !tbaa !36
  %33 = zext i8 %32 to i32
  %34 = load ptr, ptr %8, align 8, !tbaa !24
  %35 = getelementptr inbounds i8, ptr %34, i64 1
  %36 = load i8, ptr %35, align 1, !tbaa !36
  %37 = zext i8 %36 to i32
  %38 = sub nsw i32 %33, %37
  %39 = call i32 @llvm.abs.i32(i32 %38, i1 true)
  %40 = load i32, ptr %11, align 4, !tbaa !11
  %41 = add nsw i32 %40, %39
  store i32 %41, ptr %11, align 4, !tbaa !11
  %42 = load ptr, ptr %7, align 8, !tbaa !24
  %43 = getelementptr inbounds i8, ptr %42, i64 2
  %44 = load i8, ptr %43, align 1, !tbaa !36
  %45 = zext i8 %44 to i32
  %46 = load ptr, ptr %8, align 8, !tbaa !24
  %47 = getelementptr inbounds i8, ptr %46, i64 2
  %48 = load i8, ptr %47, align 1, !tbaa !36
  %49 = zext i8 %48 to i32
  %50 = sub nsw i32 %45, %49
  %51 = call i32 @llvm.abs.i32(i32 %50, i1 true)
  %52 = load i32, ptr %11, align 4, !tbaa !11
  %53 = add nsw i32 %52, %51
  store i32 %53, ptr %11, align 4, !tbaa !11
  %54 = load ptr, ptr %7, align 8, !tbaa !24
  %55 = getelementptr inbounds i8, ptr %54, i64 3
  %56 = load i8, ptr %55, align 1, !tbaa !36
  %57 = zext i8 %56 to i32
  %58 = load ptr, ptr %8, align 8, !tbaa !24
  %59 = getelementptr inbounds i8, ptr %58, i64 3
  %60 = load i8, ptr %59, align 1, !tbaa !36
  %61 = zext i8 %60 to i32
  %62 = sub nsw i32 %57, %61
  %63 = call i32 @llvm.abs.i32(i32 %62, i1 true)
  %64 = load i32, ptr %11, align 4, !tbaa !11
  %65 = add nsw i32 %64, %63
  store i32 %65, ptr %11, align 4, !tbaa !11
  %66 = load ptr, ptr %7, align 8, !tbaa !24
  %67 = getelementptr inbounds i8, ptr %66, i64 4
  %68 = load i8, ptr %67, align 1, !tbaa !36
  %69 = zext i8 %68 to i32
  %70 = load ptr, ptr %8, align 8, !tbaa !24
  %71 = getelementptr inbounds i8, ptr %70, i64 4
  %72 = load i8, ptr %71, align 1, !tbaa !36
  %73 = zext i8 %72 to i32
  %74 = sub nsw i32 %69, %73
  %75 = call i32 @llvm.abs.i32(i32 %74, i1 true)
  %76 = load i32, ptr %11, align 4, !tbaa !11
  %77 = add nsw i32 %76, %75
  store i32 %77, ptr %11, align 4, !tbaa !11
  %78 = load ptr, ptr %7, align 8, !tbaa !24
  %79 = getelementptr inbounds i8, ptr %78, i64 5
  %80 = load i8, ptr %79, align 1, !tbaa !36
  %81 = zext i8 %80 to i32
  %82 = load ptr, ptr %8, align 8, !tbaa !24
  %83 = getelementptr inbounds i8, ptr %82, i64 5
  %84 = load i8, ptr %83, align 1, !tbaa !36
  %85 = zext i8 %84 to i32
  %86 = sub nsw i32 %81, %85
  %87 = call i32 @llvm.abs.i32(i32 %86, i1 true)
  %88 = load i32, ptr %11, align 4, !tbaa !11
  %89 = add nsw i32 %88, %87
  store i32 %89, ptr %11, align 4, !tbaa !11
  %90 = load ptr, ptr %7, align 8, !tbaa !24
  %91 = getelementptr inbounds i8, ptr %90, i64 6
  %92 = load i8, ptr %91, align 1, !tbaa !36
  %93 = zext i8 %92 to i32
  %94 = load ptr, ptr %8, align 8, !tbaa !24
  %95 = getelementptr inbounds i8, ptr %94, i64 6
  %96 = load i8, ptr %95, align 1, !tbaa !36
  %97 = zext i8 %96 to i32
  %98 = sub nsw i32 %93, %97
  %99 = call i32 @llvm.abs.i32(i32 %98, i1 true)
  %100 = load i32, ptr %11, align 4, !tbaa !11
  %101 = add nsw i32 %100, %99
  store i32 %101, ptr %11, align 4, !tbaa !11
  %102 = load ptr, ptr %7, align 8, !tbaa !24
  %103 = getelementptr inbounds i8, ptr %102, i64 7
  %104 = load i8, ptr %103, align 1, !tbaa !36
  %105 = zext i8 %104 to i32
  %106 = load ptr, ptr %8, align 8, !tbaa !24
  %107 = getelementptr inbounds i8, ptr %106, i64 7
  %108 = load i8, ptr %107, align 1, !tbaa !36
  %109 = zext i8 %108 to i32
  %110 = sub nsw i32 %105, %109
  %111 = call i32 @llvm.abs.i32(i32 %110, i1 true)
  %112 = load i32, ptr %11, align 4, !tbaa !11
  %113 = add nsw i32 %112, %111
  store i32 %113, ptr %11, align 4, !tbaa !11
  %114 = load i64, ptr %9, align 8, !tbaa !26
  %115 = load ptr, ptr %7, align 8, !tbaa !24
  %116 = getelementptr inbounds i8, ptr %115, i64 %114
  store ptr %116, ptr %7, align 8, !tbaa !24
  %117 = load i64, ptr %9, align 8, !tbaa !26
  %118 = load ptr, ptr %8, align 8, !tbaa !24
  %119 = getelementptr inbounds i8, ptr %118, i64 %117
  store ptr %119, ptr %8, align 8, !tbaa !24
  br label %120

120:                                              ; preds = %17
  %121 = load i32, ptr %12, align 4, !tbaa !11
  %122 = add nsw i32 %121, 1
  store i32 %122, ptr %12, align 4, !tbaa !11
  br label %13, !llvm.loop !41

123:                                              ; preds = %13
  %124 = load i32, ptr %11, align 4, !tbaa !11
  call void @llvm.lifetime.end.p0(i64 4, ptr %12) #9
  call void @llvm.lifetime.end.p0(i64 4, ptr %11) #9
  ret i32 %124
}