; Function Attrs: inlinehint nofree norecurse nosync nounwind memory(argmem: read) uwtable
define internal i32 @pix_abs8_c(ptr readnone captures(none) %0, ptr noundef readonly captures(none) %1, ptr noundef readonly captures(none) %2, i64 noundef %3, i32 noundef %4) #6 {
  %6 = icmp sgt i32 %4, 0
  br i1 %6, label %.lr.ph, label %._crit_edge

.lr.ph:                                           ; preds = %5, %.lr.ph
  %.037 = phi i32 [ %79, %.lr.ph ], [ 0, %5 ]
  %.03136 = phi i32 [ %76, %.lr.ph ], [ 0, %5 ]
  %.03235 = phi ptr [ %77, %.lr.ph ], [ %1, %5 ]
  %.03334 = phi ptr [ %78, %.lr.ph ], [ %2, %5 ]
  %7 = load i8, ptr %.03235, align 1, !tbaa !20
  %8 = zext i8 %7 to i32
  %9 = load i8, ptr %.03334, align 1, !tbaa !20
  %10 = zext i8 %9 to i32
  %11 = sub nsw i32 %8, %10
  %12 = tail call i32 @llvm.abs.i32(i32 %11, i1 true)
  %13 = add nsw i32 %12, %.03136
  %14 = getelementptr inbounds nuw i8, ptr %.03235, i64 1
  %15 = load i8, ptr %14, align 1, !tbaa !20
  %16 = zext i8 %15 to i32
  %17 = getelementptr inbounds nuw i8, ptr %.03334, i64 1
  %18 = load i8, ptr %17, align 1, !tbaa !20
  %19 = zext i8 %18 to i32
  %20 = sub nsw i32 %16, %19
  %21 = tail call i32 @llvm.abs.i32(i32 %20, i1 true)
  %22 = add nsw i32 %13, %21
  %23 = getelementptr inbounds nuw i8, ptr %.03235, i64 2
  %24 = load i8, ptr %23, align 1, !tbaa !20
  %25 = zext i8 %24 to i32
  %26 = getelementptr inbounds nuw i8, ptr %.03334, i64 2
  %27 = load i8, ptr %26, align 1, !tbaa !20
  %28 = zext i8 %27 to i32
  %29 = sub nsw i32 %25, %28
  %30 = tail call i32 @llvm.abs.i32(i32 %29, i1 true)
  %31 = add nsw i32 %22, %30
  %32 = getelementptr inbounds nuw i8, ptr %.03235, i64 3
  %33 = load i8, ptr %32, align 1, !tbaa !20
  %34 = zext i8 %33 to i32
  %35 = getelementptr inbounds nuw i8, ptr %.03334, i64 3
  %36 = load i8, ptr %35, align 1, !tbaa !20
  %37 = zext i8 %36 to i32
  %38 = sub nsw i32 %34, %37
  %39 = tail call i32 @llvm.abs.i32(i32 %38, i1 true)
  %40 = add nsw i32 %31, %39
  %41 = getelementptr inbounds nuw i8, ptr %.03235, i64 4
  %42 = load i8, ptr %41, align 1, !tbaa !20
  %43 = zext i8 %42 to i32
  %44 = getelementptr inbounds nuw i8, ptr %.03334, i64 4
  %45 = load i8, ptr %44, align 1, !tbaa !20
  %46 = zext i8 %45 to i32
  %47 = sub nsw i32 %43, %46
  %48 = tail call i32 @llvm.abs.i32(i32 %47, i1 true)
  %49 = add nsw i32 %40, %48
  %50 = getelementptr inbounds nuw i8, ptr %.03235, i64 5
  %51 = load i8, ptr %50, align 1, !tbaa !20
  %52 = zext i8 %51 to i32
  %53 = getelementptr inbounds nuw i8, ptr %.03334, i64 5
  %54 = load i8, ptr %53, align 1, !tbaa !20
  %55 = zext i8 %54 to i32
  %56 = sub nsw i32 %52, %55
  %57 = tail call i32 @llvm.abs.i32(i32 %56, i1 true)
  %58 = add nsw i32 %49, %57
  %59 = getelementptr inbounds nuw i8, ptr %.03235, i64 6
  %60 = load i8, ptr %59, align 1, !tbaa !20
  %61 = zext i8 %60 to i32
  %62 = getelementptr inbounds nuw i8, ptr %.03334, i64 6
  %63 = load i8, ptr %62, align 1, !tbaa !20
  %64 = zext i8 %63 to i32
  %65 = sub nsw i32 %61, %64
  %66 = tail call i32 @llvm.abs.i32(i32 %65, i1 true)
  %67 = add nsw i32 %58, %66
  %68 = getelementptr inbounds nuw i8, ptr %.03235, i64 7
  %69 = load i8, ptr %68, align 1, !tbaa !20
  %70 = zext i8 %69 to i32
  %71 = getelementptr inbounds nuw i8, ptr %.03334, i64 7
  %72 = load i8, ptr %71, align 1, !tbaa !20
  %73 = zext i8 %72 to i32
  %74 = sub nsw i32 %70, %73
  %75 = tail call i32 @llvm.abs.i32(i32 %74, i1 true)
  %76 = add nsw i32 %67, %75
  %77 = getelementptr inbounds i8, ptr %.03235, i64 %3
  %78 = getelementptr inbounds i8, ptr %.03334, i64 %3
  %79 = add nuw nsw i32 %.037, 1
  %exitcond.not = icmp eq i32 %79, %4
  br i1 %exitcond.not, label %._crit_edge, label %.lr.ph, !llvm.loop !25

._crit_edge:                                      ; preds = %.lr.ph, %5
  %.031.lcssa = phi i32 [ 0, %5 ], [ %76, %.lr.ph ]
  ret i32 %.031.lcssa
}